target datalayout = "e-m:e-p270:32:32-p271:32:32-p272:64:64-i64:64-i128:128-f80:128-n8:16:32:64-S128"
target triple = "x86_64-pc-linux-gnu"

%struct.commit_graph_data = type { i32, i64 }
%struct.object_id = type { [32 x i8], i32 }
%struct.commit_graph_data_slab = type { i32, i32, i32, ptr }
%struct.commit = type { %struct.object, i64, ptr, ptr, i32 }
%struct.object = type { i32, %struct.object_id }

@commit_graph_data_slab = internal global { i32, i32, i32, [4 x i8], ptr } { i32 32766, i32 1, i32 0, [4 x i8] zeroinitializer, ptr null }, align 8
@.str.59 = private unnamed_addr constant [27 x i8] c"size_t overflow: %lu * %lu\00", align 1

; Function Attrs: inlinehint nounwind uwtable
define internal i64 @st_mult(i64 noundef %0, i64 noundef %1) #5 {
  %3 = alloca i64, align 8
  %4 = alloca i64, align 8
  store i64 %0, ptr %3, align 8, !tbaa !73
  store i64 %1, ptr %4, align 8, !tbaa !73
  %5 = load i64, ptr %3, align 8, !tbaa !73
  %6 = icmp ne i64 %5, 0
  br i1 %6, label %7, label %15

7:                                                ; preds = %2
  %8 = load i64, ptr %4, align 8, !tbaa !73
  %9 = load i64, ptr %3, align 8, !tbaa !73
  %10 = udiv i64 -1, %9
  %11 = icmp ugt i64 %8, %10
  br i1 %11, label %12, label %15

12:                                               ; preds = %7
  %13 = load i64, ptr %3, align 8, !tbaa !73
  %14 = load i64, ptr %4, align 8, !tbaa !73
  call void (ptr, ...) @die(ptr noundef @.str.59, i64 noundef %13, i64 noundef %14) #13
  unreachable

15:                                               ; preds = %7, %2
  %16 = load i64, ptr %3, align 8, !tbaa !73
  %17 = load i64, ptr %4, align 8, !tbaa !73
  %18 = mul i64 %16, %17
  ret i64 %18
}

; Function Attrs: nounwind uwtable
define internal ptr @commit_graph_data_slab_at_peek(ptr noundef %0, ptr noundef %1, i32 noundef %2) #0 {
  %4 = alloca ptr, align 8
  %5 = alloca ptr, align 8
  %6 = alloca ptr, align 8
  %7 = alloca i32, align 4
  %8 = alloca i32, align 4
  %9 = alloca i32, align 4
  %10 = alloca i32, align 4
  %11 = alloca i32, align 4
  store ptr %0, ptr %5, align 8, !tbaa !58
  store ptr %1, ptr %6, align 8, !tbaa !52
  store i32 %2, ptr %7, align 4, !tbaa !4
  call void @llvm.lifetime.start.p0(i64 4, ptr %8) #12
  call void @llvm.lifetime.start.p0(i64 4, ptr %9) #12
  %12 = load ptr, ptr %6, align 8, !tbaa !52
  %13 = getelementptr inbounds nuw %struct.commit, ptr %12, i32 0, i32 4
  %14 = load i32, ptr %13, align 8, !tbaa !311
  %15 = load ptr, ptr %5, align 8, !tbaa !58
  %16 = getelementptr inbounds nuw %struct.commit_graph_data_slab, ptr %15, i32 0, i32 0
  %17 = load i32, ptr %16, align 8, !tbaa !312
  %18 = udiv i32 %14, %17
  store i32 %18, ptr %8, align 4, !tbaa !4
  %19 = load ptr, ptr %6, align 8, !tbaa !52
  %20 = getelementptr inbounds nuw %struct.commit, ptr %19, i32 0, i32 4
  %21 = load i32, ptr %20, align 8, !tbaa !311
  %22 = load ptr, ptr %5, align 8, !tbaa !58
  %23 = getelementptr inbounds nuw %struct.commit_graph_data_slab, ptr %22, i32 0, i32 0
  %24 = load i32, ptr %23, align 8, !tbaa !312
  %25 = urem i32 %21, %24
  store i32 %25, ptr %9, align 4, !tbaa !4
  %26 = load ptr, ptr %5, align 8, !tbaa !58
  %27 = getelementptr inbounds nuw %struct.commit_graph_data_slab, ptr %26, i32 0, i32 2
  %28 = load i32, ptr %27, align 8, !tbaa !142
  %29 = load i32, ptr %8, align 4, !tbaa !4
  %30 = icmp ule i32 %28, %29
  br i1 %30, label %31, label %71

31:                                               ; preds = %3
  call void @llvm.lifetime.start.p0(i64 4, ptr %10) #12
  %32 = load i32, ptr %7, align 4, !tbaa !4
  %33 = icmp ne i32 %32, 0
  br i1 %33, label %35, label %34

34:                                               ; preds = %31
  store ptr null, ptr %4, align 8
  store i32 1, ptr %11, align 4
  br label %68

35:                                               ; preds = %31
  %36 = load ptr, ptr %5, align 8, !tbaa !58
  %37 = getelementptr inbounds nuw %struct.commit_graph_data_slab, ptr %36, i32 0, i32 3
  %38 = load ptr, ptr %37, align 8, !tbaa !145
  %39 = load i32, ptr %8, align 4, !tbaa !4
  %40 = add i32 %39, 1
  %41 = zext i32 %40 to i64
  %42 = call i64 @st_mult(i64 noundef 8, i64 noundef %41)
  %43 = call ptr @xrealloc(ptr noundef %38, i64 noundef %42)
  %44 = load ptr, ptr %5, align 8, !tbaa !58
  %45 = getelementptr inbounds nuw %struct.commit_graph_data_slab, ptr %44, i32 0, i32 3
  store ptr %43, ptr %45, align 8, !tbaa !145
  %46 = load ptr, ptr %5, align 8, !tbaa !58
  %47 = getelementptr inbounds nuw %struct.commit_graph_data_slab, ptr %46, i32 0, i32 2
  %48 = load i32, ptr %47, align 8, !tbaa !142
  store i32 %48, ptr %10, align 4, !tbaa !4
  br label %49

49:                                               ; preds = %60, %35
  %50 = load i32, ptr %10, align 4, !tbaa !4
  %51 = load i32, ptr %8, align 4, !tbaa !4
  %52 = icmp ule i32 %50, %51
  br i1 %52, label %53, label %63

53:                                               ; preds = %49
  %54 = load ptr, ptr %5, align 8, !tbaa !58
  %55 = getelementptr inbounds nuw %struct.commit_graph_data_slab, ptr %54, i32 0, i32 3
  %56 = load ptr, ptr %55, align 8, !tbaa !145
  %57 = load i32, ptr %10, align 4, !tbaa !4
  %58 = zext i32 %57 to i64
  %59 = getelementptr inbounds nuw ptr, ptr %56, i64 %58
  store ptr null, ptr %59, align 8, !tbaa !54
  br label %60

60:                                               ; preds = %53
  %61 = load i32, ptr %10, align 4, !tbaa !4
  %62 = add i32 %61, 1
  store i32 %62, ptr %10, align 4, !tbaa !4
  br label %49, !llvm.loop !313

63:                                               ; preds = %49
  %64 = load i32, ptr %8, align 4, !tbaa !4
  %65 = add i32 %64, 1
  %66 = load ptr, ptr %5, align 8, !tbaa !58
  %67 = getelementptr inbounds nuw %struct.commit_graph_data_slab, ptr %66, i32 0, i32 2
  store i32 %65, ptr %67, align 8, !tbaa !142
  store i32 0, ptr %11, align 4
  br label %68

68:                                               ; preds = %63, %34
  call void @llvm.lifetime.end.p0(i64 4, ptr %10) #12
  %69 = load i32, ptr %11, align 4
  switch i32 %69, label %116 [
    i32 0, label %70
  ]

70:                                               ; preds = %68
  br label %71

71:                                               ; preds = %70, %3
  %72 = load ptr, ptr %5, align 8, !tbaa !58
  %73 = getelementptr inbounds nuw %struct.commit_graph_data_slab, ptr %72, i32 0, i32 3
  %74 = load ptr, ptr %73, align 8, !tbaa !145
  %75 = load i32, ptr %8, align 4, !tbaa !4
  %76 = zext i32 %75 to i64
  %77 = getelementptr inbounds nuw ptr, ptr %74, i64 %76
  %78 = load ptr, ptr %77, align 8, !tbaa !54
  %79 = icmp ne ptr %78, null
  br i1 %79, label %101, label %80

80:                                               ; preds = %71
  %81 = load i32, ptr %7, align 4, !tbaa !4
  %82 = icmp ne i32 %81, 0
  br i1 %82, label %84, label %83

83:                                               ; preds = %80
  store ptr null, ptr %4, align 8
  store i32 1, ptr %11, align 4
  br label %116

84:                                               ; preds = %80
  %85 = load ptr, ptr %5, align 8, !tbaa !58
  %86 = getelementptr inbounds nuw %struct.commit_graph_data_slab, ptr %85, i32 0, i32 0
  %87 = load i32, ptr %86, align 8, !tbaa !312
  %88 = zext i32 %87 to i64
  %89 = load ptr, ptr %5, align 8, !tbaa !58
  %90 = getelementptr inbounds nuw %struct.commit_graph_data_slab, ptr %89, i32 0, i32 1
  %91 = load i32, ptr %90, align 4, !tbaa !314
  %92 = zext i32 %91 to i64
  %93 = mul i64 16, %92
  %94 = call ptr @xcalloc(i64 noundef %88, i64 noundef %93)
  %95 = load ptr, ptr %5, align 8, !tbaa !58
  %96 = getelementptr inbounds nuw %struct.commit_graph_data_slab, ptr %95, i32 0, i32 3
  %97 = load ptr, ptr %96, align 8, !tbaa !145
  %98 = load i32, ptr %8, align 4, !tbaa !4
  %99 = zext i32 %98 to i64
  %100 = getelementptr inbounds nuw ptr, ptr %97, i64 %99
  store ptr %94, ptr %100, align 8, !tbaa !54
  br label %101

101:                                              ; preds = %84, %71
  %102 = load ptr, ptr %5, align 8, !tbaa !58
  %103 = getelementptr inbounds nuw %struct.commit_graph_data_slab, ptr %102, i32 0, i32 3
  %104 = load ptr, ptr %103, align 8, !tbaa !145
  %105 = load i32, ptr %8, align 4, !tbaa !4
  %106 = zext i32 %105 to i64
  %107 = getelementptr inbounds nuw ptr, ptr %104, i64 %106
  %108 = load ptr, ptr %107, align 8, !tbaa !54
  %109 = load i32, ptr %9, align 4, !tbaa !4
  %110 = load ptr, ptr %5, align 8, !tbaa !58
  %111 = getelementptr inbounds nuw %struct.commit_graph_data_slab, ptr %110, i32 0, i32 1
  %112 = load i32, ptr %111, align 4, !tbaa !314
  %113 = mul i32 %109, %112
  %114 = zext i32 %113 to i64
  %115 = getelementptr inbounds nuw %struct.commit_graph_data, ptr %108, i64 %114
  store ptr %115, ptr %4, align 8
  store i32 1, ptr %11, align 4
  br label %116

116:                                              ; preds = %101, %83, %68
  call void @llvm.lifetime.end.p0(i64 4, ptr %9) #12
  call void @llvm.lifetime.end.p0(i64 4, ptr %8) #12
  %117 = load ptr, ptr %4, align 8
  ret ptr %117
}

; Function Attrs: nounwind uwtable
define internal ptr @commit_graph_data_slab_at(ptr noundef %0, ptr noundef %1) #0 {
  %3 = alloca ptr, align 8
  %4 = alloca ptr, align 8
  store ptr %0, ptr %3, align 8, !tbaa !58
  store ptr %1, ptr %4, align 8, !tbaa !52
  %5 = load ptr, ptr %3, align 8, !tbaa !58
  %6 = load ptr, ptr %4, align 8, !tbaa !52
  %7 = call ptr @commit_graph_data_slab_at_peek(ptr noundef %5, ptr noundef %6, i32 noundef 1)
  ret ptr %7
}

; Function Attrs: nounwind uwtable
define internal ptr @commit_graph_data_slab_peek(ptr noundef %0, ptr noundef %1) #0 {
  %3 = alloca ptr, align 8
  %4 = alloca ptr, align 8
  store ptr %0, ptr %3, align 8, !tbaa !58
  store ptr %1, ptr %4, align 8, !tbaa !52
  %5 = load ptr, ptr %3, align 8, !tbaa !58
  %6 = load ptr, ptr %4, align 8, !tbaa !52
  %7 = call ptr @commit_graph_data_slab_at_peek(ptr noundef %5, ptr noundef %6, i32 noundef 0)
  ret ptr %7
}

; Function Attrs: nounwind uwtable
define internal ptr @commit_graph_data_at(ptr noundef %0) #0 {
  %2 = alloca ptr, align 8
  %3 = alloca ptr, align 8
  %4 = alloca i32, align 4
  %5 = alloca i32, align 4
  %6 = alloca ptr, align 8
  %7 = alloca i32, align 4
  store ptr %0, ptr %3, align 8, !tbaa !52
  call void @llvm.lifetime.start.p0(i64 4, ptr %4) #12
  call void @llvm.lifetime.start.p0(i64 4, ptr %5) #12
  call void @llvm.lifetime.start.p0(i64 8, ptr %6) #12
  %8 = load ptr, ptr %3, align 8, !tbaa !52
  %9 = call ptr @commit_graph_data_slab_peek(ptr noundef @commit_graph_data_slab, ptr noundef %8)
  store ptr %9, ptr %6, align 8, !tbaa !54
  %10 = load ptr, ptr %6, align 8, !tbaa !54
  %11 = icmp ne ptr %10, null
  br i1 %11, label %12, label %14

12:                                               ; preds = %1
  %13 = load ptr, ptr %6, align 8, !tbaa !54
  store ptr %13, ptr %2, align 8
  store i32 1, ptr %7, align 4
  br label %41

14:                                               ; preds = %1
  %15 = load ptr, ptr %3, align 8, !tbaa !52
  %16 = getelementptr inbounds nuw %struct.commit, ptr %15, i32 0, i32 4
  %17 = load i32, ptr %16, align 8, !tbaa !311
  %18 = load i32, ptr @commit_graph_data_slab, align 8, !tbaa !312
  %19 = udiv i32 %17, %18
  store i32 %19, ptr %5, align 4, !tbaa !4
  %20 = load ptr, ptr %3, align 8, !tbaa !52
  %21 = call ptr @commit_graph_data_slab_at(ptr noundef @commit_graph_data_slab, ptr noundef %20)
  store ptr %21, ptr %6, align 8, !tbaa !54
  store i32 0, ptr %4, align 4, !tbaa !4
  br label %22

22:                                               ; preds = %36, %14
  %23 = load i32, ptr %4, align 4, !tbaa !4
  %24 = load i32, ptr @commit_graph_data_slab, align 8, !tbaa !312
  %25 = icmp ult i32 %23, %24
  br i1 %25, label %26, label %39

26:                                               ; preds = %22
  %27 = load ptr, ptr getelementptr inbounds nuw (%struct.commit_graph_data_slab, ptr @commit_graph_data_slab, i32 0, i32 3), align 8, !tbaa !145
  %28 = load i32, ptr %5, align 4, !tbaa !4
  %29 = zext i32 %28 to i64
  %30 = getelementptr inbounds nuw ptr, ptr %27, i64 %29
  %31 = load ptr, ptr %30, align 8, !tbaa !54
  %32 = load i32, ptr %4, align 4, !tbaa !4
  %33 = zext i32 %32 to i64
  %34 = getelementptr inbounds nuw %struct.commit_graph_data, ptr %31, i64 %33
  %35 = getelementptr inbounds nuw %struct.commit_graph_data, ptr %34, i32 0, i32 0
  store i32 -1, ptr %35, align 8, !tbaa !56
  br label %36

36:                                               ; preds = %26
  %37 = load i32, ptr %4, align 4, !tbaa !4
  %38 = add i32 %37, 1
  store i32 %38, ptr %4, align 4, !tbaa !4
  br label %22, !llvm.loop !319

39:                                               ; preds = %22
  %40 = load ptr, ptr %6, align 8, !tbaa !54
  store ptr %40, ptr %2, align 8
  store i32 1, ptr %7, align 4
  br label %41

41:                                               ; preds = %39, %12
  call void @llvm.lifetime.end.p0(i64 8, ptr %6) #12
  call void @llvm.lifetime.end.p0(i64 4, ptr %5) #12
  call void @llvm.lifetime.end.p0(i64 4, ptr %4) #12
  %42 = load ptr, ptr %2, align 8
  ret ptr %42
}