; Function Attrs: nounwind uwtable
define internal fastcc ptr @commit_graph_data_at(i32 %.64.val) unnamed_addr #0 {
  %1 = udiv i32 %.64.val, 32766
  %2 = urem i32 %.64.val, 32766
  %3 = load i32, ptr @commit_graph_data_slab.2, align 8, !tbaa !55
  %.not.i.i = icmp ugt i32 %3, %1
  br i1 %.not.i.i, label %._crit_edge4.i.i, label %9

._crit_edge4.i.i:                                 ; preds = %0
  %.pre.i.i = load ptr, ptr @commit_graph_data_slab.3, align 8, !tbaa !58
  %4 = zext nneg i32 %1 to i64
  %5 = getelementptr inbounds nuw ptr, ptr %.pre.i.i, i64 %4
  %6 = load ptr, ptr %5, align 8, !tbaa !59
  %.not35.i.i = icmp eq ptr %6, null
  br i1 %.not35.i.i, label %._crit_edge4.i.i15.thread, label %commit_graph_data_slab_peek.exit

commit_graph_data_slab_peek.exit:                 ; preds = %._crit_edge4.i.i
  %7 = zext nneg i32 %2 to i64
  %8 = getelementptr inbounds nuw %struct.commit_graph_data, ptr %6, i64 %7
  br label %.loopexit

9:                                                ; preds = %0
  %10 = add nuw nsw i32 %1, 1
  %11 = load ptr, ptr @commit_graph_data_slab.3, align 8, !tbaa !58
  %12 = shl nuw nsw i32 %10, 3
  %13 = zext nneg i32 %12 to i64
  %14 = tail call ptr @xrealloc(ptr noundef %11, i64 noundef %13) #24
  store ptr %14, ptr @commit_graph_data_slab.3, align 8, !tbaa !58
  %15 = load i32, ptr @commit_graph_data_slab.2, align 8, !tbaa !55
  %.not342.i.i = icmp ugt i32 %15, %1
  br i1 %.not342.i.i, label %._crit_edge4.i.i15, label %.lr.ph.i.i

.lr.ph.i.i:                                       ; preds = %9, %.lr.ph.i.i
  %.0303.i.i = phi i32 [ %18, %.lr.ph.i.i ], [ %15, %9 ]
  %16 = zext i32 %.0303.i.i to i64
  %17 = getelementptr inbounds nuw ptr, ptr %14, i64 %16
  store ptr null, ptr %17, align 8, !tbaa !59
  %18 = add i32 %.0303.i.i, 1
  %.not34.i.i = icmp ugt i32 %18, %1
  br i1 %.not34.i.i, label %._crit_edge4.i.i15, label %.lr.ph.i.i, !llvm.loop !293

._crit_edge4.i.i15:                               ; preds = %.lr.ph.i.i, %9
  store i32 %10, ptr @commit_graph_data_slab.2, align 8, !tbaa !55
  %.pre = zext nneg i32 %1 to i64
  %.phi.trans.insert = getelementptr inbounds nuw ptr, ptr %14, i64 %.pre
  %.pre8 = load ptr, ptr %.phi.trans.insert, align 8, !tbaa !59
  %.not35.i.i14 = icmp eq ptr %.pre8, null
  br i1 %.not35.i.i14, label %._crit_edge4.i.i15.thread, label %commit_graph_data_slab_at.exit

._crit_edge4.i.i15.thread:                        ; preds = %._crit_edge4.i.i, %._crit_edge4.i.i15
  %.pre-phi14 = phi i64 [ %.pre, %._crit_edge4.i.i15 ], [ %4, %._crit_edge4.i.i ]
  %19 = tail call ptr @xcalloc(i64 noundef 32766, i64 noundef 16) #24
  %20 = load ptr, ptr @commit_graph_data_slab.3, align 8, !tbaa !58
  %21 = getelementptr inbounds nuw ptr, ptr %20, i64 %.pre-phi14
  store ptr %19, ptr %21, align 8, !tbaa !59
  br label %commit_graph_data_slab_at.exit

commit_graph_data_slab_at.exit:                   ; preds = %._crit_edge4.i.i15, %._crit_edge4.i.i15.thread
  %22 = phi ptr [ %19, %._crit_edge4.i.i15.thread ], [ %.pre8, %._crit_edge4.i.i15 ]
  %23 = zext nneg i32 %2 to i64
  %24 = getelementptr inbounds nuw %struct.commit_graph_data, ptr %22, i64 %23
  br label %25

25:                                               ; preds = %commit_graph_data_slab_at.exit, %25
  %indvars.iv = phi i64 [ 0, %commit_graph_data_slab_at.exit ], [ %indvars.iv.next, %25 ]
  %26 = getelementptr inbounds nuw %struct.commit_graph_data, ptr %22, i64 %indvars.iv
  store i32 -1, ptr %26, align 8, !tbaa !61
  %indvars.iv.next = add nuw nsw i64 %indvars.iv, 1
  %exitcond.not = icmp eq i64 %indvars.iv.next, 32766
  br i1 %exitcond.not, label %.loopexit, label %25, !llvm.loop !294

.loopexit:                                        ; preds = %25, %commit_graph_data_slab_peek.exit
  %.0 = phi ptr [ %8, %commit_graph_data_slab_peek.exit ], [ %24, %25 ]
  ret ptr %.0
}